target datalayout = "e-m:e-p270:32:32-p271:32:32-p272:64:64-i64:64-i128:128-f80:128-n8:16:32:64-S128"
target triple = "x86_64-pc-linux-gnu"

%struct.VLC = type { i32, ptr, i32, i32 }
%struct.VLCInitState = type { ptr, i32 }
%struct.VLCElem = type { %union.anon }
%union.anon = type { %struct.anon }
%struct.anon = type { i16, i16 }

; Function Attrs: cold nounwind optsize uwtable
define ptr @ff_vlc_init_tables_sparse(ptr noundef %0, i32 noundef %1, i32 noundef %2, ptr noundef %3, i32 noundef %4, i32 noundef %5, ptr noundef %6, i32 noundef %7, i32 noundef %8, ptr noundef %9, i32 noundef %10, i32 noundef %11, i32 noundef %12) #6 {
  %14 = alloca ptr, align 8
  %15 = alloca i32, align 4
  %16 = alloca i32, align 4
  %17 = alloca ptr, align 8
  %18 = alloca i32, align 4
  %19 = alloca i32, align 4
  %20 = alloca ptr, align 8
  %21 = alloca i32, align 4
  %22 = alloca i32, align 4
  %23 = alloca ptr, align 8
  %24 = alloca i32, align 4
  %25 = alloca i32, align 4
  %26 = alloca i32, align 4
  %27 = alloca %struct.VLC, align 8
  store ptr %0, ptr %14, align 8, !tbaa !46
  store i32 %1, ptr %15, align 4, !tbaa !9
  store i32 %2, ptr %16, align 4, !tbaa !9
  store ptr %3, ptr %17, align 8, !tbaa !11
  store i32 %4, ptr %18, align 4, !tbaa !9
  store i32 %5, ptr %19, align 4, !tbaa !9
  store ptr %6, ptr %20, align 8, !tbaa !11
  store i32 %7, ptr %21, align 4, !tbaa !9
  store i32 %8, ptr %22, align 4, !tbaa !9
  store ptr %9, ptr %23, align 8, !tbaa !11
  store i32 %10, ptr %24, align 4, !tbaa !9
  store i32 %11, ptr %25, align 4, !tbaa !9
  store i32 %12, ptr %26, align 4, !tbaa !9
  call void @llvm.lifetime.start.p0(i64 24, ptr %27) #8
  %28 = getelementptr inbounds nuw %struct.VLC, ptr %27, i32 0, i32 0
  store i32 0, ptr %28, align 8, !tbaa !36
  %29 = getelementptr i8, ptr %27, i64 4
  call void @llvm.memset.p0.i64(ptr align 4 %29, i8 0, i64 4, i1 false)
  %30 = getelementptr inbounds nuw %struct.VLC, ptr %27, i32 0, i32 1
  %31 = load ptr, ptr %14, align 8, !tbaa !46
  %32 = getelementptr inbounds nuw %struct.VLCInitState, ptr %31, i32 0, i32 0
  %33 = load ptr, ptr %32, align 8, !tbaa !48
  store ptr %33, ptr %30, align 8, !tbaa !40
  %34 = getelementptr inbounds nuw %struct.VLC, ptr %27, i32 0, i32 2
  store i32 0, ptr %34, align 8, !tbaa !39
  %35 = getelementptr inbounds nuw %struct.VLC, ptr %27, i32 0, i32 3
  %36 = load ptr, ptr %14, align 8, !tbaa !46
  %37 = getelementptr inbounds nuw %struct.VLCInitState, ptr %36, i32 0, i32 1
  %38 = load i32, ptr %37, align 8, !tbaa !50
  store i32 %38, ptr %35, align 4, !tbaa !41
  %39 = load i32, ptr %15, align 4, !tbaa !9
  %40 = load i32, ptr %16, align 4, !tbaa !9
  %41 = load ptr, ptr %17, align 8, !tbaa !11
  %42 = load i32, ptr %18, align 4, !tbaa !9
  %43 = load i32, ptr %19, align 4, !tbaa !9
  %44 = load ptr, ptr %20, align 8, !tbaa !11
  %45 = load i32, ptr %21, align 4, !tbaa !9
  %46 = load i32, ptr %22, align 4, !tbaa !9
  %47 = load ptr, ptr %23, align 8, !tbaa !11
  %48 = load i32, ptr %24, align 4, !tbaa !9
  %49 = load i32, ptr %25, align 4, !tbaa !9
  %50 = load i32, ptr %26, align 4, !tbaa !9
  %51 = or i32 %50, 3
  %52 = call i32 @ff_vlc_init_sparse(ptr noundef %27, i32 noundef %39, i32 noundef %40, ptr noundef %41, i32 noundef %42, i32 noundef %43, ptr noundef %44, i32 noundef %45, i32 noundef %46, ptr noundef %47, i32 noundef %48, i32 noundef %49, i32 noundef %51)
  %53 = getelementptr inbounds nuw %struct.VLC, ptr %27, i32 0, i32 2
  %54 = load i32, ptr %53, align 8, !tbaa !39
  %55 = load ptr, ptr %14, align 8, !tbaa !46
  %56 = getelementptr inbounds nuw %struct.VLCInitState, ptr %55, i32 0, i32 0
  %57 = load ptr, ptr %56, align 8, !tbaa !48
  %58 = sext i32 %54 to i64
  %59 = getelementptr inbounds %struct.VLCElem, ptr %57, i64 %58
  store ptr %59, ptr %56, align 8, !tbaa !48
  %60 = getelementptr inbounds nuw %struct.VLC, ptr %27, i32 0, i32 2
  %61 = load i32, ptr %60, align 8, !tbaa !39
  %62 = load ptr, ptr %14, align 8, !tbaa !46
  %63 = getelementptr inbounds nuw %struct.VLCInitState, ptr %62, i32 0, i32 1
  %64 = load i32, ptr %63, align 8, !tbaa !50
  %65 = sub i32 %64, %61
  store i32 %65, ptr %63, align 8, !tbaa !50
  %66 = getelementptr inbounds nuw %struct.VLC, ptr %27, i32 0, i32 1
  %67 = load ptr, ptr %66, align 8, !tbaa !40
  call void @llvm.lifetime.end.p0(i64 24, ptr %27) #8
  ret ptr %67
}