; Function Attrs: cold nounwind optsize uwtable
define ptr @ff_vlc_init_tables_sparse(ptr noundef captures(none) %0, i32 noundef %1, i32 noundef %2, ptr noundef readonly captures(none) %3, i32 noundef %4, i32 noundef %5, ptr noundef readonly captures(none) %6, i32 noundef %7, i32 noundef %8, ptr noundef readonly captures(address_is_null) %9, i32 noundef %10, i32 noundef %11, i32 noundef %12) local_unnamed_addr #4 {
  %14 = alloca %struct.VLC, align 8
  call void @llvm.lifetime.start.p0(i64 24, ptr nonnull %14) #8
  store i32 0, ptr %14, align 8, !tbaa !4
  %15 = getelementptr inbounds nuw i8, ptr %14, i64 4
  store i32 0, ptr %15, align 4
  %16 = getelementptr inbounds nuw i8, ptr %14, i64 8
  %17 = load ptr, ptr %0, align 8, !tbaa !32
  store ptr %17, ptr %16, align 8, !tbaa !12
  %18 = getelementptr inbounds nuw i8, ptr %14, i64 16
  store i32 0, ptr %18, align 8, !tbaa !11
  %19 = getelementptr inbounds nuw i8, ptr %14, i64 20
  %20 = getelementptr inbounds nuw i8, ptr %0, i64 8
  %21 = load i32, ptr %20, align 8, !tbaa !34
  store i32 %21, ptr %19, align 4, !tbaa !13
  %22 = or i32 %12, 3
  %23 = call i32 @ff_vlc_init_sparse(ptr noundef nonnull %14, i32 noundef %1, i32 noundef %2, ptr noundef %3, i32 noundef %4, i32 noundef %5, ptr noundef %6, i32 noundef %7, i32 noundef %8, ptr noundef %9, i32 noundef %10, i32 noundef %11, i32 noundef %22)
  %24 = load i32, ptr %18, align 8, !tbaa !11
  %25 = load ptr, ptr %0, align 8, !tbaa !32
  %26 = sext i32 %24 to i64
  %27 = getelementptr inbounds %struct.VLCElem, ptr %25, i64 %26
  store ptr %27, ptr %0, align 8, !tbaa !32
  %28 = load i32, ptr %20, align 8, !tbaa !34
  %29 = sub i32 %28, %24
  store i32 %29, ptr %20, align 8, !tbaa !34
  %30 = load ptr, ptr %16, align 8, !tbaa !12
  call void @llvm.lifetime.end.p0(i64 24, ptr nonnull %14) #8
  ret ptr %30
}